(lp0
(dp1
S'showTrayIcon'
p2
I01
sS'windowDefaultSize'
p3
(I965
I556
tp4
sS'undoUsingBackspace'
p5
I01
sS'enableQT4Workaround'
p6
I00
sS'promptToSave'
p7
I01
sS'interfaceType'
p8
S'XEvDev'
p9
sS'showToolbar'
p10
I01
sS'serviceRunning'
p11
I01
sS'isFirstRun'
p12
I00
sS'sortByUsageCount'
p13
I01
sS'inputSavings'
p14
I11
sS'hPanePosition'
p15
I239
sS'menuTakesFocus'
p16
I00
sa(iautokey.configmanager
ConfigManager
p17
(dp18
S'folders'
p19
(dp20
VSample Scripts
p21
(iautokey.model
Folder
p22
(dp23
g19
(lp24
sS'ignoreCase'
p25
I00
sS'modifiers'
p26
(lp27
sS'parent'
p28
NsS'modes'
p29
(lp30
sS'wordChars'
p31
cre
_compile
p32
(S'[\\w]'
p33
I32
tp34
Rp35
sS'windowTitleRegex'
p36
NsS'items'
p37
(lp38
(iautokey.model
Script
p39
(dp40
S'usageCount'
p41
I0
sg25
I00
sS'omitTrigger'
p42
I00
sg26
(lp43
sS'prompt'
p44
I00
sS'description'
p45
S'Insert Date'
p46
sg31
g35
sg36
NsS'showInTrayMenu'
p47
I00
sS'immediate'
p48
I00
sS'abbreviation'
p49
NsS'code'
p50
S'output = system.exec_command("date")\nkeyboard.send_keys(output)'
p51
sS'backspace'
p52
I01
sS'triggerInside'
p53
I00
sS'hotKey'
p54
Nsg28
g22
sS'store'
p55
ccopy_reg
_reconstructor
p56
(cautokey.scripting
Store
p57
c__builtin__
dict
p58
(dp59
tp60
Rp61
sg29
(lp62
sba(iautokey.model
Script
p63
(dp64
g41
I0
sg25
I00
sg42
I00
sg26
(lp65
sg44
I00
sg45
S'List Menu'
p66
sg31
g35
sg36
Nsg47
I00
sg48
I00
sg49
Nsg50
S'choices = ["something", "something else", "a third thing"]\n\nretCode, choice = dialog.list_menu(choices)\nif retCode == 0:\n    keyboard.send_keys("You chose " + choice)'
p67
sg52
I01
sg53
I00
sg54
Nsg28
g22
sg55
g56
(g57
g58
(dp68
tp69
Rp70
sg29
(lp71
sba(iautokey.model
Script
p72
(dp73
g41
I0
sg25
I00
sg42
I00
sg26
(lp74
sg44
I00
sg45
S'Selection Test'
p75
sg31
g35
sg36
Nsg47
I00
sg48
I00
sg49
Nsg50
S'text = clipboard.get_selection()\nkeyboard.send_key("<delete>")\nkeyboard.send_keys("The text %s was here previously" % text)'
p76
sg52
I01
sg53
I00
sg54
Nsg28
g22
sg55
g56
(g57
g58
(dp77
tp78
Rp79
sg29
(lp80
sba(iautokey.model
Script
p81
(dp82
g41
I0
sg25
I00
sg42
I00
sg26
(lp83
sg44
I00
sg45
S'Abbreviation from selection'
p84
sg31
g35
sg36
Nsg47
I00
sg48
I00
sg49
Nsg50
S'import time\ntime.sleep(0.25)\ncontents = clipboard.get_selection()\nretCode, abbr = dialog.input_dialog("New Abbreviation", "Choose an abbreviation for the new phrase")\nif retCode == 0:\n    if len(contents) > 20:\n        title = contents[0:17] + "..."\n    else:\n        title = contents\n    folder = engine.get_folder("My Phrases")\n    engine.create_abbreviation(folder, title, abbr, contents)'
p85
sg52
I01
sg53
I00
sg54
Nsg28
g22
sg55
g56
(g57
g58
(dp86
tp87
Rp88
sg29
(lp89
sba(iautokey.model
Script
p90
(dp91
g41
I0
sg25
I00
sg42
I00
sg26
(lp92
sg44
I00
sg45
S'Phrase from selection'
p93
sg31
g35
sg36
Nsg47
I00
sg48
I00
sg49
Nsg50
S'import time\ntime.sleep(0.25)\ncontents = clipboard.get_selection()\nif len(contents) > 20:\n    title = contents[0:17] + "..."\nelse:\n    title = contents\nfolder = engine.get_folder("My Phrases")\nengine.create_phrase(folder, title, contents)'
p94
sg52
I01
sg53
I00
sg54
Nsg28
g22
sg55
g56
(g57
g58
(dp95
tp96
Rp97
sg29
(lp98
sbasS'title'
p99
g21
sg47
I00
sg48
I00
sg49
Nsg52
I01
sg53
I00
sg54
Nsg41
I0
sbsVMy Phrases
p100
(iautokey.model
Folder
p101
(dp102
g19
(lp103
(iautokey.model
Folder
p104
(dp105
g19
(lp106
sg25
I00
sg26
(lp107
sg28
g101
sg29
(lp108
sg31
g35
sg36
Nsg37
(lp109
(iautokey.model
Phrase
p110
(dp111
g41
I0
sg25
I00
sg42
I00
sg26
(lp112
sg44
I00
sg45
VHome Address
p113
sg31
g35
sg36
NsS'matchCase'
p114
I00
sg47
I00
sg48
I00
sg49
Vadr
p115
sg52
I01
sg53
I00
sg54
NsS'phrase'
p116
V22 Avenue Street\u000aBrisbane\u000aQLD\u000a4000
p117
sg28
g104
sg29
(lp118
I1
asbasg99
VAddresses
p119
sg47
I00
sg48
I00
sg49
Nsg52
I01
sg53
I00
sg54
Nsg41
I0
sbasg25
I00
sg26
(lp120
S'<ctrl>'
p121
asg28
Nsg29
(lp122
I3
asg31
g35
sg36
Nsg37
(lp123
(iautokey.model
Phrase
p124
(dp125
g41
I1
sg25
I00
sg42
I00
sg26
(lp126
sg44
I00
sg45
V..\u256e(\ufe4b\ufe4f\ufe4c)\u256d..
p127
sg31
g35
sg36
Nsg114
I00
sg47
I00
sg48
I00
sg49
Nsg52
I01
sg53
I00
sg54
Nsg116
V..\u256e(\ufe4b\ufe4f\ufe4c)\u256d..
p128
sg28
g101
sg29
(lp129
sba(iautokey.model
Phrase
p130
(dp131
g41
I0
sg25
I00
sg42
I00
sg26
(lp132
sg44
I00
sg45
V\u25ce\u2212\u25ce\uff1f
p133
sg31
g35
sg36
Nsg114
I00
sg47
I00
sg48
I00
sg49
Nsg52
I01
sg53
I00
sg54
Nsg116
V\u25ce\u2212\u25ce\uff1f
p134
sg28
g101
sg29
(lp135
sba(iautokey.model
Phrase
p136
(dp137
g41
I0
sg25
I00
sg42
I00
sg26
(lp138
sg44
I00
sg45
V(^_-)db(-_^)\u3000\u624b\u6307\u6253\u52fe\u52fe\u3001\u7d04\u5b9a
p139
sg31
g35
sg36
Nsg114
I00
sg47
I00
sg48
I00
sg49
Nsg52
I01
sg53
I00
sg54
Nsg116
V(^_-)db(-_^)\u3000\u624b\u6307\u6253\u52fe\u52fe\u3001\u7d04\u5b9a
p140
sg28
g101
sg29
(lp141
sba(iautokey.model
Phrase
p142
(dp143
g41
I0
sg25
I00
sg42
I00
sg26
(lp144
sg44
I00
sg45
V\u256e(\uff0d_\uff0d)\u256d\u3000\u5169\u624b\u4e00\u6524
p145
sg31
g35
sg36
Nsg114
I00
sg47
I00
sg48
I00
sg49
Nsg52
I01
sg53
I00
sg54
Nsg116
V\u256e(\uff0d_\uff0d)\u256d\u3000\u5169\u624b\u4e00\u6524
p146
sg28
g101
sg29
(lp147
sba(iautokey.model
Phrase
p148
(dp149
g41
I0
sg25
I00
sg42
I00
sg26
(lp150
sg44
I00
sg45
V*\u005c(^_^)/*\u3000\u62ff\u7db5\u7403\u3001\u70ba\u4f60\u52a0\u6cb9
p151
sg31
g35
sg36
Nsg114
I00
sg47
I00
sg48
I00
sg49
Nsg52
I01
sg53
I00
sg54
Nsg116
V*\u005c(^_^)/*\u3000\u62ff\u7db5\u7403\u3001\u70ba\u4f60\u52a0\u6cb9
p152
sg28
g101
sg29
(lp153
sba(iautokey.model
Phrase
p154
(dp155
g41
I0
sg25
I00
sg42
I00
sg26
(lp156
sg44
I00
sg45
V(\uffe3\ufe41\uffe3)\u3000\u6d41\u53e3\u6c34
p157
sg31
g35
sg36
Nsg114
I00
sg47
I00
sg48
I00
sg49
Nsg52
I01
sg53
I00
sg54
Nsg116
V(\uffe3\ufe41\uffe3)\u3000\u6d41\u53e3\u6c34
p158
sg28
g101
sg29
(lp159
sba(iautokey.model
Phrase
p160
(dp161
g41
I0
sg25
I00
sg42
I00
sg26
(lp162
sg44
I00
sg45
V*\u005c(^_^)/*\u3000\u62ff\u7db5\u7403\u3001\u70ba\u4f60\u52a0\u6cb9
p163
sg31
g35
sg36
Nsg114
I00
sg47
I00
sg48
I00
sg49
Nsg52
I01
sg53
I00
sg54
Nsg116
V*\u005c(^_^)/*\u3000\u62ff\u7db5\u7403\u3001\u70ba\u4f60\u52a0\u6cb9
p164
sg28
g101
sg29
(lp165
sbasg99
g100
sg47
I01
sg48
I00
sg49
Nsg52
I01
sg53
I00
sg54
S'<f7>'
p166
sg41
I1
sbssS'toggleServiceHotkey'
p167
(iautokey.configmanager
GlobalHotkey
p168
(dp169
g54
S'k'
p170
sS'closure'
p171
Nsg26
(lp172
g121
aS'<shift>'
p173
asS'enabled'
p174
I01
sg36
NsbsS'allFolders'
p175
(lp176
g22
ag101
ag104
asS'app'
p177
NsS'globalHotkeys'
p178
(lp179
(iautokey.configmanager
GlobalHotkey
p180
(dp181
g54
Nsg171
Nsg26
(lp182
sg174
I00
sg36
Nsbag168
a(iautokey.configmanager
GlobalHotkey
p183
(dp184
g54
Nsg171
Nsg26
(lp185
sg174
I00
sg36
NsbasS'hotKeyFolders'
p186
(lp187
g101
asS'recentEntries'
p188
(lp189
sS'allItems'
p190
(lp191
g39
ag63
ag72
ag81
ag90
ag110
ag124
ag130
ag136
ag142
ag148
ag154
ag160
asS'userCodeDir'
p192
S'/tmp/3'
p193
sS'VERSION'
p194
S'0.61.3'
p195
sS'hotKeys'
p196
(lp197
sS'showPopupHotkey'
p198
g183
sS'configHotkey'
p199
g180
sS'abbreviations'
p200
(lp201
g110
asba.